Certificate:
    Data:
        Version: 3 (0x2)
        Serial Number:
            1b:19:c2:04:e1:10:b8:fd:6e:3f:e5:d3:f4:15:3d:15:b0:b1:54:d5
        Signature Algorithm: sha256WithRSAEncryption
        Issuer: DC=org, DC=simple, O=Simple Inc, CN=Simple Signing CA
        Validity
            Not Before: Nov 29 19:26:29 2025 GMT
            Not After : Nov 29 19:26:29 2027 GMT
        Subject: DC=org, DC=simple, O=Simple Inc, CN=localhost
        Subject Public Key Info:
            Public Key Algorithm: rsaEncryption
                Public-Key: (2048 bit)
                Modulus:
                    00:c3:11:af:81:e9:6d:e9:01:1a:71:91:2b:b3:56:
                    ea:70:1d:11:30:d5:59:ab:66:6c:d7:a3:10:23:f4:
                    21:6e:66:2b:2d:07:2a:ba:f9:bd:1b:c8:37:90:50:
                    37:25:7b:15:fc:37:21:6e:10:f0:01:27:9d:f2:a3:
                    55:c6:18:3c:75:c6:fa:53:56:13:6e:a6:17:b9:6e:
                    9b:b4:3d:55:85:1f:30:0a:b4:10:72:d3:f6:40:20:
                    8a:5a:4b:ba:7a:99:cb:f3:3a:d8:86:7b:e5:ca:b6:
                    0b:65:8c:7f:7e:0f:2c:97:38:56:cd:7d:da:c5:3e:
                    32:23:98:4a:81:d1:b1:01:a1:87:8f:b3:bd:23:da:
                    70:25:8a:86:1f:68:3e:5f:2b:a3:6a:c2:6a:14:1a:
                    31:b5:58:c2:84:b4:8c:99:5b:b4:dc:f8:51:b9:07:
                    b4:d9:31:bb:1f:bb:1e:e2:e2:26:05:a3:ec:86:fa:
                    5b:d7:c6:d5:64:5d:5f:bd:fa:65:55:cc:fb:a4:ac:
                    40:25:c1:4e:19:0d:73:9d:24:65:80:cd:c0:36:37:
                    84:d1:a8:86:d3:a2:3d:d9:bd:da:21:e7:1c:09:cd:
                    01:7c:5d:45:6d:ac:50:75:95:18:72:75:61:99:92:
                    c3:42:fc:37:4c:aa:0e:7b:51:31:2c:7d:60:89:47:
                    b3:a9
                Exponent: 65537 (0x10001)
        X509v3 extensions:
            X509v3 Key Usage: critical
                Digital Signature, Key Encipherment
            X509v3 Basic Constraints: 
                CA:FALSE
            X509v3 Extended Key Usage: 
                TLS Web Server Authentication, TLS Web Client Authentication
            X509v3 Subject Key Identifier: 
                2E:0C:AC:2C:48:47:B6:93:EA:11:A2:C2:CF:A8:29:41:F4:EA:18:A6
            X509v3 Authority Key Identifier: 
                E3:4E:07:7B:0A:50:32:D7:5A:B5:AF:54:5D:10:3B:E2:D7:D2:4B:0B
            X509v3 Subject Alternative Name: 
                DNS:localhost, DNS:www.localhost, IP Address:127.0.0.1
    Signature Algorithm: sha256WithRSAEncryption
    Signature Value:
        96:db:0d:ab:f8:18:c0:d7:3e:b0:2c:ec:23:0e:03:44:b4:88:
        78:de:c2:fe:b0:a1:19:b1:97:12:e3:27:16:bb:61:70:40:c6:
        13:ea:12:f7:96:66:cc:f9:49:8d:ad:15:89:1b:93:56:93:37:
        b1:13:94:ec:16:03:ef:b3:2d:7e:49:fe:c1:6f:d5:7a:a7:89:
        cf:58:bb:83:b5:0a:fb:e8:19:3e:bb:a1:fc:44:f7:e1:a6:a9:
        af:22:56:ea:75:49:4e:bd:de:60:22:1e:fb:87:33:43:28:b1:
        0d:d2:8b:2f:4d:39:b1:8d:8f:d1:8f:99:f4:cf:d7:79:2c:36:
        6c:ba:b1:a1:80:1f:af:46:5d:d5:25:ea:b1:fc:5c:05:b6:26:
        69:85:fe:20:33:fc:f6:16:e4:b7:0a:97:e7:95:7b:c7:19:b8:
        2a:88:f1:8d:44:04:7a:a6:a0:c5:63:dc:ba:aa:22:73:3c:29:
        51:4c:1e:2b:ef:ca:58:a2:65:41:85:ca:b3:7e:99:76:fa:f7:
        39:5c:79:a0:93:26:41:26:d9:32:03:d3:13:f1:35:a8:3f:07:
        cf:98:c7:56:6b:ab:66:9e:72:15:09:9b:c0:dc:04:dc:55:09:
        83:0d:c6:8d:a1:4f:5f:57:81:a0:04:dc:7c:e7:b5:b9:73:44:
        af:3c:11:ab
-----BEGIN CERTIFICATE-----
MIID6zCCAtOgAwIBAgIUGxnCBOEQuP1uP+XT9BU9FbCxVNUwDQYJKoZIhvcNAQEL
BQAwXjETMBEGCgmSJomT8ixkARkWA29yZzEWMBQGCgmSJomT8ixkARkWBnNpbXBs
ZTETMBEGA1UECgwKU2ltcGxlIEluYzEaMBgGA1UEAwwRU2ltcGxlIFNpZ25pbmcg
Q0EwHhcNMjUxMTI5MTkyNjI5WhcNMjcxMTI5MTkyNjI5WjBWMRMwEQYKCZImiZPy
LGQBGRYDb3JnMRYwFAYKCZImiZPyLGQBGRYGc2ltcGxlMRMwEQYDVQQKDApTaW1w
bGUgSW5jMRIwEAYDVQQDDAlsb2NhbGhvc3QwggEiMA0GCSqGSIb3DQEBAQUAA4IB
DwAwggEKAoIBAQDDEa+B6W3pARpxkSuzVupwHREw1VmrZmzXoxAj9CFuZistByq6
+b0byDeQUDclexX8NyFuEPABJ53yo1XGGDx1xvpTVhNuphe5bpu0PVWFHzAKtBBy
0/ZAIIpaS7p6mcvzOtiGe+XKtgtljH9+DyyXOFbNfdrFPjIjmEqB0bEBoYePs70j
2nAlioYfaD5fK6NqwmoUGjG1WMKEtIyZW7Tc+FG5B7TZMbsfux7i4iYFo+yG+lvX
xtVkXV+9+mVVzPukrEAlwU4ZDXOdJGWAzcA2N4TRqIbToj3Zvdoh5xwJzQF8XUVt
rFB1lRhydWGZksNC/DdMqg57UTEsfWCJR7OpAgMBAAGjgagwgaUwDgYDVR0PAQH/
BAQDAgWgMAkGA1UdEwQCMAAwHQYDVR0lBBYwFAYIKwYBBQUHAwEGCCsGAQUFBwMC
MB0GA1UdDgQWBBQuDKwsSEe2k+oRosLPqClB9OoYpjAfBgNVHSMEGDAWgBTjTgd7
ClAy11q1r1RdEDvi19JLCzApBgNVHREEIjAggglsb2NhbGhvc3SCDXd3dy5sb2Nh
bGhvc3SHBH8AAAEwDQYJKoZIhvcNAQELBQADggEBAJbbDav4GMDXPrAs7CMOA0S0
iHjewv6woRmxlxLjJxa7YXBAxhPqEveWZsz5SY2tFYkbk1aTN7ETlOwWA++zLX5J
/sFv1Xqnic9Yu4O1CvvoGT67ofxE9+Gmqa8iVup1SU693mAiHvuHM0MosQ3Siy9N
ObGNj9GPmfTP13ksNmy6saGAH69GXdUl6rH8XAW2JmmF/iAz/PYW5LcKl+eVe8cZ
uCqI8Y1EBHqmoMVj3LqqInM8KVFMHivvyliiZUGFyrN+mXb69zlceaCTJkEm2TID
0xPxNag/B8+Yx1Zrq2aechUJm8DcBNxVCYMNxo2hT19XgaAE3HzntblzRK88Eas=
-----END CERTIFICATE-----
