Certificate:
    Data:
        Version: 3 (0x2)
        Serial Number:
            03:ff:38:cd:3e:d3:87:48:a5:0c:93:f7:8b:0f:91:9f:60:71:71:6a
        Signature Algorithm: sha256WithRSAEncryption
        Issuer: DC=org, DC=simple, O=Simple Inc, CN=Simple Root CA
        Validity
            Not Before: Nov 29 19:26:29 2025 GMT
            Not After : Nov 29 19:26:29 2035 GMT
        Subject: DC=org, DC=simple, O=Simple Inc, CN=Simple Signing CA
        Subject Public Key Info:
            Public Key Algorithm: rsaEncryption
                Public-Key: (2048 bit)
                Modulus:
                    00:cd:56:fe:25:09:b5:f8:f7:19:51:dc:8c:db:95:
                    6b:37:6e:32:72:70:f6:7a:6f:7a:2a:3e:56:ca:99:
                    0d:7b:a0:60:59:89:30:bd:03:e5:9a:3f:bb:c5:35:
                    6e:12:48:a1:03:8f:6a:6e:84:84:57:e8:74:fb:c8:
                    74:a2:94:a9:af:47:09:9e:a0:41:1b:3e:91:bd:ed:
                    67:ad:f3:77:a7:79:83:51:eb:b3:9c:7b:b8:51:0d:
                    8e:1f:bc:c5:6b:1c:e4:d4:06:de:f9:47:60:7f:a2:
                    54:98:20:03:01:17:3c:db:6f:97:4c:86:2f:21:b6:
                    6b:c1:a8:fc:cd:53:7f:a1:43:0a:a4:7d:f7:08:a6:
                    e5:45:6f:8f:73:a3:00:98:ba:87:87:86:f2:53:42:
                    52:ec:42:9f:71:32:34:a7:be:ed:d2:27:aa:47:8f:
                    10:13:31:1b:e6:27:ec:ab:35:47:f4:03:d2:46:5c:
                    e6:32:f5:a8:60:95:df:f4:8a:2b:07:30:f0:a6:5f:
                    f4:a6:6c:09:79:0a:7d:02:dd:9b:41:70:73:01:d1:
                    08:e7:56:86:d7:8d:90:c3:7a:85:f9:8c:cb:46:9c:
                    85:f9:20:c1:28:64:71:d2:84:21:48:a4:84:8d:b6:
                    20:15:9b:e8:5f:37:ef:8e:6b:f0:f7:cc:30:7c:70:
                    de:2f
                Exponent: 65537 (0x10001)
        X509v3 extensions:
            X509v3 Key Usage: critical
                Certificate Sign, CRL Sign
            X509v3 Basic Constraints: critical
                CA:TRUE, pathlen:0
            X509v3 Subject Key Identifier: 
                E3:4E:07:7B:0A:50:32:D7:5A:B5:AF:54:5D:10:3B:E2:D7:D2:4B:0B
            X509v3 Authority Key Identifier: 
                1D:90:23:86:15:D8:BB:FF:24:D7:AA:38:63:76:9C:9E:5B:78:9F:78
    Signature Algorithm: sha256WithRSAEncryption
    Signature Value:
        b2:9b:4a:1a:9c:b5:02:8e:8a:1e:32:2c:bb:37:fd:9a:c1:7c:
        2c:c9:7e:a9:99:7d:7e:87:ed:55:2d:08:ec:2f:f0:d6:a4:3b:
        05:79:15:b7:35:33:20:25:12:73:b5:f7:d2:8e:16:3e:81:6f:
        86:66:5d:92:3f:fb:76:cb:e0:e4:88:21:4b:f5:31:82:a7:f8:
        36:22:6f:ba:e1:6b:68:69:ad:d0:c1:05:dd:b6:88:17:e0:3a:
        bd:d4:4f:e9:3f:f2:e1:13:86:df:b1:ce:3e:d5:68:11:6c:ce:
        d8:45:1c:ab:63:4b:a7:99:1f:70:b9:ea:59:09:57:d6:9c:01:
        58:b3:eb:50:51:85:9c:f7:64:79:2e:f3:21:9a:e6:f3:57:eb:
        51:7d:8d:da:d9:4c:f8:a6:97:be:43:41:83:14:c3:e5:6d:ef:
        8b:bf:c2:2f:66:f3:b9:51:89:32:27:f4:0c:d0:75:4f:c1:14:
        bc:94:04:cd:9e:13:5d:13:07:c1:f1:26:c3:e5:5d:c6:53:7c:
        ba:d4:3e:25:fa:ad:ca:9a:1f:ee:f2:a4:4a:26:49:a3:f0:24:
        b7:16:de:29:79:7a:ec:7b:3d:ac:18:fa:1c:86:ed:ad:8e:5c:
        e4:5b:c0:5d:be:f7:7d:50:0f:3a:04:09:30:25:7d:e5:f9:a2:
        1f:6d:6b:39
-----BEGIN CERTIFICATE-----
MIIDrTCCApWgAwIBAgIUA/84zT7Th0ilDJP3iw+Rn2BxcWowDQYJKoZIhvcNAQEL
BQAwWzETMBEGCgmSJomT8ixkARkWA29yZzEWMBQGCgmSJomT8ixkARkWBnNpbXBs
ZTETMBEGA1UECgwKU2ltcGxlIEluYzEXMBUGA1UEAwwOU2ltcGxlIFJvb3QgQ0Ew
HhcNMjUxMTI5MTkyNjI5WhcNMzUxMTI5MTkyNjI5WjBeMRMwEQYKCZImiZPyLGQB
GRYDb3JnMRYwFAYKCZImiZPyLGQBGRYGc2ltcGxlMRMwEQYDVQQKDApTaW1wbGUg
SW5jMRowGAYDVQQDDBFTaW1wbGUgU2lnbmluZyBDQTCCASIwDQYJKoZIhvcNAQEB
BQADggEPADCCAQoCggEBAM1W/iUJtfj3GVHcjNuVazduMnJw9npveio+VsqZDXug
YFmJML0D5Zo/u8U1bhJIoQOPam6EhFfodPvIdKKUqa9HCZ6gQRs+kb3tZ63zd6d5
g1Hrs5x7uFENjh+8xWsc5NQG3vlHYH+iVJggAwEXPNtvl0yGLyG2a8Go/M1Tf6FD
CqR99wim5UVvj3OjAJi6h4eG8lNCUuxCn3EyNKe+7dInqkePEBMxG+Yn7Ks1R/QD
0kZc5jL1qGCV3/SKKwcw8KZf9KZsCXkKfQLdm0FwcwHRCOdWhteNkMN6hfmMy0ac
hfkgwShkcdKEIUikhI22IBWb6F83745r8PfMMHxw3i8CAwEAAaNmMGQwDgYDVR0P
AQH/BAQDAgEGMBIGA1UdEwEB/wQIMAYBAf8CAQAwHQYDVR0OBBYEFONOB3sKUDLX
WrWvVF0QO+LX0ksLMB8GA1UdIwQYMBaAFB2QI4YV2Lv/JNeqOGN2nJ5beJ94MA0G
CSqGSIb3DQEBCwUAA4IBAQCym0oanLUCjooeMiy7N/2awXwsyX6pmX1+h+1VLQjs
L/DWpDsFeRW3NTMgJRJztffSjhY+gW+GZl2SP/t2y+DkiCFL9TGCp/g2Im+64Wto
aa3QwQXdtogX4Dq91E/pP/LhE4bfsc4+1WgRbM7YRRyrY0unmR9wuepZCVfWnAFY
s+tQUYWc92R5LvMhmubzV+tRfY3a2Uz4ppe+Q0GDFMPlbe+Lv8IvZvO5UYkyJ/QM
0HVPwRS8lATNnhNdEwfB8SbD5V3GU3y61D4l+q3Kmh/u8qRKJkmj8CS3Ft4peXrs
ez2sGPochu2tjlzkW8Bdvvd9UA86BAkwJX3l+aIfbWs5
-----END CERTIFICATE-----
